target datalayout = "e-m:e-p270:32:32-p271:32:32-p272:64:64-i64:64-i128:128-f80:128-n8:16:32:64-S128"
target triple = "x86_64-pc-linux-gnu"

%struct.Res6_Man_t_ = type { i32, i32, i32, i32, i32, i32, %struct.Vec_Wrd_t_, %struct.Vec_Wrd_t_, ptr, ptr, %struct.Vec_Int_t_, %struct.Vec_Int_t_, %struct.Vec_Int_t_, %struct.Vec_Int_t_ }
%struct.Vec_Wrd_t_ = type { i32, i32, ptr }
%struct.Vec_Int_t_ = type { i32, i32, ptr }

@.str.22 = private unnamed_addr constant [26 x i8] c"Verification successful.\0A\00", align 1
@.str.23 = private unnamed_addr constant [52 x i8] c"Verification FAILED with %d errors on %d patterns.\0A\00", align 1

; Function Attrs: nounwind uwtable
define void @Res6_ManResubVerifyPla(ptr noundef %0, ptr noundef %1) #0 {
  %3 = alloca ptr, align 8
  %4 = alloca ptr, align 8
  %5 = alloca i32, align 4
  store ptr %0, ptr %3, align 8, !tbaa !17
  store ptr %1, ptr %4, align 8, !tbaa !54
  call void @llvm.lifetime.start.p0(i64 4, ptr %5) #11
  %6 = load ptr, ptr %3, align 8, !tbaa !17
  %7 = load ptr, ptr %4, align 8, !tbaa !54
  %8 = call i32 @Res6_FindBestEvalPla(ptr noundef %6, ptr noundef %7)
  store i32 %8, ptr %5, align 4, !tbaa !19
  %9 = load i32, ptr %5, align 4, !tbaa !19
  %10 = icmp eq i32 %9, 0
  br i1 %10, label %11, label %13

11:                                               ; preds = %2
  %12 = call i32 (ptr, ...) @printf(ptr noundef @.str.22)
  br label %19

13:                                               ; preds = %2
  %14 = load i32, ptr %5, align 4, !tbaa !19
  %15 = load ptr, ptr %3, align 8, !tbaa !17
  %16 = getelementptr inbounds nuw %struct.Res6_Man_t_, ptr %15, i32 0, i32 4
  %17 = load i32, ptr %16, align 8, !tbaa !44
  %18 = call i32 (ptr, ...) @printf(ptr noundef @.str.23, i32 noundef %14, i32 noundef %17)
  br label %19

19:                                               ; preds = %13, %11
  call void @llvm.lifetime.end.p0(i64 4, ptr %5) #11
  ret void
}