; Function Attrs: nofree nounwind uwtable
define void @Res6_ManResubVerifyPla(ptr noundef readonly captures(none) %0, ptr noundef readonly captures(none) %1) local_unnamed_addr #7 {
  %3 = tail call i32 @Res6_FindBestEvalPla(ptr noundef %0, ptr noundef %1)
  %4 = icmp eq i32 %3, 0
  br i1 %4, label %5, label %6

5:                                                ; preds = %2
  %puts = tail call i32 @puts(ptr nonnull dereferenceable(1) @str.1)
  br label %10

6:                                                ; preds = %2
  %7 = getelementptr inbounds nuw i8, ptr %0, i64 16
  %8 = load i32, ptr %7, align 8, !tbaa !55
  %9 = tail call i32 (ptr, ...) @printf(ptr noundef nonnull dereferenceable(1) @.str.23, i32 noundef %3, i32 noundef %8)
  br label %10

10:                                               ; preds = %6, %5
  ret void
}